	.text
	.attribute	4, 16
	.attribute	5, "rv32i2p0"
	.file	"cntz_fun.c"
	.file	0 "/home/llvm/LLVM-CustomInstr" "cntz_fun.c" md5 0x91e1e67b413babd890e6ff9a61ba12f4
	.globl	cntz_fun                        # -- Begin function cntz_fun
	.p2align	1
	.type	cntz_fun,@function
cntz_fun:                               # @cntz_fun
.Lfunc_begin0:
	.loc	0 12 0                          # cntz_fun.c:12:0
	.cfi_sections .debug_frame
	.cfi_startproc
# %bb.0:
	addi	sp, sp, -32
	.cfi_def_cfa_offset 32
	sw	ra, 28(sp)                      # 4-byte Folded Spill
	sw	s0, 24(sp)                      # 4-byte Folded Spill
	sw	s1, 20(sp)                      # 4-byte Folded Spill
	.cfi_offset ra, -4
	.cfi_offset s0, -8
	.cfi_offset s1, -12
	addi	s0, sp, 32
	.cfi_def_cfa s0, 0
	sw	a0, -20(s0)
	sw	a1, -24(s0)
.Ltmp0:
	.loc	0 13 9 prologue_end             # cntz_fun.c:13:9
	lw	a0, -24(s0)
	li	a1, 31
.Ltmp1:
	.loc	0 13 9 is_stmt 0                # cntz_fun.c:13:9
	blt	a1, a0, .LBB0_2
	j	.LBB0_1
.LBB0_1:
.Ltmp2:
	.loc	0 14 18 is_stmt 1               # cntz_fun.c:14:18
	lw	a0, -20(s0)
	.loc	0 14 23 is_stmt 0               # cntz_fun.c:14:23
	andi	s1, a0, 1
	.loc	0 14 43                         # cntz_fun.c:14:43
	srli	a0, a0, 1
	.loc	0 14 49                         # cntz_fun.c:14:49
	lw	a1, -24(s0)
	.loc	0 14 50                         # cntz_fun.c:14:50
	addi	a1, a1, 1
	.loc	0 14 31                         # cntz_fun.c:14:31
	call	cntz_fun
	.loc	0 14 29                         # cntz_fun.c:14:29
	add	a0, a0, s1
	.loc	0 14 9                          # cntz_fun.c:14:9
	sw	a0, -16(s0)
	j	.LBB0_3
.LBB0_2:
	.loc	0 16 9 is_stmt 1                # cntz_fun.c:16:9
	sw	zero, -16(s0)
	j	.LBB0_3
.Ltmp3:
.LBB0_3:
	.loc	0 17 1                          # cntz_fun.c:17:1
	lw	a0, -16(s0)
	lw	ra, 28(sp)                      # 4-byte Folded Reload
	lw	s0, 24(sp)                      # 4-byte Folded Reload
	lw	s1, 20(sp)                      # 4-byte Folded Reload
	addi	sp, sp, 32
	ret
.Ltmp4:
.Lfunc_end0:
	.size	cntz_fun, .Lfunc_end0-cntz_fun
	.cfi_endproc
                                        # -- End function
	.type	n,@object                       # @n
	.section	.sbss,"aw",@nobits
	.globl	n
	.p2align	2
n:
	.word	0                               # 0x0
	.size	n, 4

	.section	".note.GNU-stack","",@progbits